target datalayout = "e-m:e-p270:32:32-p271:32:32-p272:64:64-i64:64-i128:128-f80:128-n8:16:32:64-S128"
target triple = "x86_64-pc-linux-gnu"

%struct.LWLock = type { i16, %struct.pg_atomic_uint32, %struct.proclist_head }
%struct.pg_atomic_uint32 = type { i32 }
%struct.proclist_head = type { i32, i32 }
%struct.PGPROC = type { %struct.dlist_node, ptr, ptr, i32, %struct.Latch, i32, i32, i32, i32, %struct.anon, i32, i32, i32, i8, i8, i8, i8, %struct.proclist_node, %struct.proclist_node, ptr, ptr, i32, i32, %struct.pg_atomic_uint64, i32, i8, i64, i32, %struct.dlist_node, [16 x %struct.dlist_head], %struct.XidCacheStatus, %struct.XidCache, i8, %struct.pg_atomic_uint32, i32, i32, i8, %struct.pg_atomic_uint32, i32, i32, i64, i64, %struct.LWLock, ptr, ptr, i8, i32, ptr, %struct.dlist_head, %struct.dlist_node }
%struct.Latch = type { i32, i32, i8, i32 }
%struct.anon = type { i32, i32 }
%struct.proclist_node = type { i32, i32 }
%struct.pg_atomic_uint64 = type { i64 }
%struct.XidCacheStatus = type { i8, i8 }
%struct.XidCache = type { [64 x i32] }
%struct.dlist_head = type { %struct.dlist_node }
%struct.dlist_node = type { ptr, ptr }

@MyProc = external global ptr, align 8
@InterruptHoldoffCount = external global i32, align 4
@my_wait_event_info = external global ptr, align 8

; Function Attrs: inlinehint nounwind uwtable
define internal i64 @pg_atomic_read_u64_impl(ptr noundef %0) #5 {
  %2 = alloca ptr, align 8
  store ptr %0, ptr %2, align 8
  %3 = load ptr, ptr %2, align 8
  %4 = getelementptr inbounds nuw %struct.pg_atomic_uint64, ptr %3, i32 0, i32 0
  %5 = load volatile i64, ptr %4, align 8
  ret i64 %5
}

; Function Attrs: inlinehint nounwind uwtable
define internal i32 @pg_atomic_read_u32_impl(ptr noundef %0) #5 {
  %2 = alloca ptr, align 8
  store ptr %0, ptr %2, align 8
  %3 = load ptr, ptr %2, align 8
  %4 = getelementptr inbounds nuw %struct.pg_atomic_uint32, ptr %3, i32 0, i32 0
  %5 = load volatile i32, ptr %4, align 4
  ret i32 %5
}

; Function Attrs: inlinehint nounwind uwtable
define internal void @pgstat_report_wait_end() #5 {
  %1 = load ptr, ptr @my_wait_event_info, align 8
  store volatile i32 0, ptr %1, align 4
  ret void
}

; Function Attrs: inlinehint nounwind uwtable
define internal void @pgstat_report_wait_start(i32 noundef %0) #5 {
  %2 = alloca i32, align 4
  store i32 %0, ptr %2, align 4
  %3 = load i32, ptr %2, align 4
  %4 = load ptr, ptr @my_wait_event_info, align 8
  store volatile i32 %3, ptr %4, align 4
  ret void
}

; Function Attrs: inlinehint nounwind uwtable
define internal i32 @pg_atomic_fetch_or_u32_impl(ptr noundef %0, i32 noundef %1) #5 {
  %3 = alloca ptr, align 8
  %4 = alloca i32, align 4
  store ptr %0, ptr %3, align 8
  store i32 %1, ptr %4, align 4
  %5 = load ptr, ptr %3, align 8
  %6 = getelementptr inbounds nuw %struct.pg_atomic_uint32, ptr %5, i32 0, i32 0
  %7 = load i32, ptr %4, align 4
  %8 = atomicrmw or ptr %6, i32 %7 seq_cst, align 4
  ret i32 %8
}

; Function Attrs: inlinehint nounwind uwtable
define internal i64 @pg_atomic_read_u64(ptr noundef %0) #5 {
  %2 = alloca ptr, align 8
  store ptr %0, ptr %2, align 8
  %3 = load ptr, ptr %2, align 8
  %4 = call i64 @pg_atomic_read_u64_impl(ptr noundef %3)
  ret i64 %4
}

; Function Attrs: inlinehint nounwind uwtable
define internal i32 @pg_atomic_read_u32(ptr noundef %0) #5 {
  %2 = alloca ptr, align 8
  store ptr %0, ptr %2, align 8
  %3 = load ptr, ptr %2, align 8
  %4 = call i32 @pg_atomic_read_u32_impl(ptr noundef %3)
  ret i32 %4
}

; Function Attrs: inlinehint nounwind uwtable
define internal void @LWLockReportWaitEnd() #5 {
  call void @pgstat_report_wait_end()
  ret void
}

; Function Attrs: inlinehint nounwind uwtable
define internal void @LWLockReportWaitStart(ptr noundef %0) #5 {
  %2 = alloca ptr, align 8
  store ptr %0, ptr %2, align 8
  %3 = load ptr, ptr %2, align 8
  %4 = getelementptr inbounds nuw %struct.LWLock, ptr %3, i32 0, i32 0
  %5 = load i16, ptr %4, align 4
  %6 = zext i16 %5 to i32
  %7 = or i32 16777216, %6
  call void @pgstat_report_wait_start(i32 noundef %7)
  ret void
}

; Function Attrs: inlinehint nounwind uwtable
define internal i32 @pg_atomic_fetch_or_u32(ptr noundef %0, i32 noundef %1) #5 {
  %3 = alloca ptr, align 8
  %4 = alloca i32, align 4
  store ptr %0, ptr %3, align 8
  store i32 %1, ptr %4, align 4
  %5 = load ptr, ptr %3, align 8
  %6 = load i32, ptr %4, align 4
  %7 = call i32 @pg_atomic_fetch_or_u32_impl(ptr noundef %5, i32 noundef %6)
  ret i32 %7
}

; Function Attrs: nounwind uwtable
define internal zeroext i1 @LWLockConflictsWithVar(ptr noundef %0, ptr noundef %1, i64 noundef %2, ptr noundef %3, ptr noundef %4) #0 {
  %6 = alloca i1, align 1
  %7 = alloca ptr, align 8
  %8 = alloca ptr, align 8
  %9 = alloca i64, align 8
  %10 = alloca ptr, align 8
  %11 = alloca ptr, align 8
  %12 = alloca i8, align 1
  %13 = alloca i64, align 8
  %14 = alloca i32, align 4
  store ptr %0, ptr %7, align 8
  store ptr %1, ptr %8, align 8
  store i64 %2, ptr %9, align 8
  store ptr %3, ptr %10, align 8
  store ptr %4, ptr %11, align 8
  call void @llvm.lifetime.start.p0(i64 1, ptr %12) #9
  call void @llvm.lifetime.start.p0(i64 8, ptr %13) #9
  %15 = load ptr, ptr %7, align 8
  %16 = getelementptr inbounds nuw %struct.LWLock, ptr %15, i32 0, i32 1
  %17 = call i32 @pg_atomic_read_u32(ptr noundef %16)
  %18 = and i32 %17, 16777216
  %19 = icmp ne i32 %18, 0
  %20 = zext i1 %19 to i8
  store i8 %20, ptr %12, align 1
  %21 = load i8, ptr %12, align 1, !range !7, !noundef !8
  %22 = trunc i8 %21 to i1
  br i1 %22, label %25, label %23

23:                                               ; preds = %5
  %24 = load ptr, ptr %11, align 8
  store i8 1, ptr %24, align 1
  store i1 false, ptr %6, align 1
  store i32 1, ptr %14, align 4
  br label %39

25:                                               ; preds = %5
  %26 = load ptr, ptr %11, align 8
  store i8 0, ptr %26, align 1
  %27 = load ptr, ptr %8, align 8
  %28 = call i64 @pg_atomic_read_u64(ptr noundef %27)
  store i64 %28, ptr %13, align 8
  %29 = load i64, ptr %13, align 8
  %30 = load i64, ptr %9, align 8
  %31 = icmp ne i64 %29, %30
  br i1 %31, label %32, label %35

32:                                               ; preds = %25
  store i8 0, ptr %12, align 1
  %33 = load i64, ptr %13, align 8
  %34 = load ptr, ptr %10, align 8
  store i64 %33, ptr %34, align 8
  br label %36

35:                                               ; preds = %25
  store i8 1, ptr %12, align 1
  br label %36

36:                                               ; preds = %35, %32
  %37 = load i8, ptr %12, align 1, !range !7, !noundef !8
  %38 = trunc i8 %37 to i1
  store i1 %38, ptr %6, align 1
  store i32 1, ptr %14, align 4
  br label %39

39:                                               ; preds = %36, %23
  call void @llvm.lifetime.end.p0(i64 8, ptr %13) #9
  call void @llvm.lifetime.end.p0(i64 1, ptr %12) #9
  %40 = load i1, ptr %6, align 1
  ret i1 %40
}

; Function Attrs: nounwind uwtable
define dso_local zeroext i1 @LWLockWaitForVar(ptr noundef %0, ptr noundef %1, i64 noundef %2, ptr noundef %3) #0 {
  %5 = alloca ptr, align 8
  %6 = alloca ptr, align 8
  %7 = alloca i64, align 8
  %8 = alloca ptr, align 8
  %9 = alloca ptr, align 8
  %10 = alloca i32, align 4
  %11 = alloca i8, align 1
  %12 = alloca i8, align 1
  %13 = alloca i32, align 4
  store ptr %0, ptr %5, align 8
  store ptr %1, ptr %6, align 8
  store i64 %2, ptr %7, align 8
  store ptr %3, ptr %8, align 8
  call void @llvm.lifetime.start.p0(i64 8, ptr %9) #9
  %14 = load ptr, ptr @MyProc, align 8
  store ptr %14, ptr %9, align 8
  call void @llvm.lifetime.start.p0(i64 4, ptr %10) #9
  store i32 0, ptr %10, align 4
  call void @llvm.lifetime.start.p0(i64 1, ptr %11) #9
  store i8 0, ptr %11, align 1
  %15 = load volatile i32, ptr @InterruptHoldoffCount, align 4
  %16 = add i32 %15, 1
  store volatile i32 %16, ptr @InterruptHoldoffCount, align 4
  br label %17

17:                                               ; preds = %60, %4
  call void @llvm.lifetime.start.p0(i64 1, ptr %12) #9
  %18 = load ptr, ptr %5, align 8
  %19 = load ptr, ptr %6, align 8
  %20 = load i64, ptr %7, align 8
  %21 = load ptr, ptr %8, align 8
  %22 = call zeroext i1 @LWLockConflictsWithVar(ptr noundef %18, ptr noundef %19, i64 noundef %20, ptr noundef %21, ptr noundef %11)
  %23 = zext i1 %22 to i8
  store i8 %23, ptr %12, align 1
  %24 = load i8, ptr %12, align 1, !range !7, !noundef !8
  %25 = trunc i8 %24 to i1
  br i1 %25, label %27, label %26

26:                                               ; preds = %17
  store i32 2, ptr %13, align 4
  br label %58

27:                                               ; preds = %17
  %28 = load ptr, ptr %5, align 8
  call void @LWLockQueueSelf(ptr noundef %28, i32 noundef 2)
  %29 = load ptr, ptr %5, align 8
  %30 = getelementptr inbounds nuw %struct.LWLock, ptr %29, i32 0, i32 1
  %31 = call i32 @pg_atomic_fetch_or_u32(ptr noundef %30, i32 noundef 536870912)
  %32 = load ptr, ptr %5, align 8
  %33 = load ptr, ptr %6, align 8
  %34 = load i64, ptr %7, align 8
  %35 = load ptr, ptr %8, align 8
  %36 = call zeroext i1 @LWLockConflictsWithVar(ptr noundef %32, ptr noundef %33, i64 noundef %34, ptr noundef %35, ptr noundef %11)
  %37 = zext i1 %36 to i8
  store i8 %37, ptr %12, align 1
  %38 = load i8, ptr %12, align 1, !range !7, !noundef !8
  %39 = trunc i8 %38 to i1
  br i1 %39, label %42, label %40

40:                                               ; preds = %27
  %41 = load ptr, ptr %5, align 8
  call void @LWLockDequeueSelf(ptr noundef %41)
  store i32 2, ptr %13, align 4
  br label %58

42:                                               ; preds = %27
  %43 = load ptr, ptr %5, align 8
  call void @LWLockReportWaitStart(ptr noundef %43)
  br label %44

44:                                               ; preds = %54, %42
  %45 = load ptr, ptr %9, align 8
  %46 = getelementptr inbounds nuw %struct.PGPROC, ptr %45, i32 0, i32 2
  %47 = load ptr, ptr %46, align 8
  call void @PGSemaphoreLock(ptr noundef %47)
  %48 = load ptr, ptr %9, align 8
  %49 = getelementptr inbounds nuw %struct.PGPROC, ptr %48, i32 0, i32 15
  %50 = load i8, ptr %49, align 2
  %51 = zext i8 %50 to i32
  %52 = icmp eq i32 %51, 0
  br i1 %52, label %53, label %54

53:                                               ; preds = %44
  br label %57

54:                                               ; preds = %44
  %55 = load i32, ptr %10, align 4
  %56 = add i32 %55, 1
  store i32 %56, ptr %10, align 4
  br label %44

57:                                               ; preds = %53
  call void @LWLockReportWaitEnd()
  store i32 0, ptr %13, align 4
  br label %58

58:                                               ; preds = %57, %40, %26
  call void @llvm.lifetime.end.p0(i64 1, ptr %12) #9
  %59 = load i32, ptr %13, align 4
  switch i32 %59, label %78 [
    i32 0, label %60
    i32 2, label %61
  ]

60:                                               ; preds = %58
  br label %17

61:                                               ; preds = %58
  br label %62

62:                                               ; preds = %66, %61
  %63 = load i32, ptr %10, align 4
  %64 = add i32 %63, -1
  store i32 %64, ptr %10, align 4
  %65 = icmp sgt i32 %63, 0
  br i1 %65, label %66, label %70

66:                                               ; preds = %62
  %67 = load ptr, ptr %9, align 8
  %68 = getelementptr inbounds nuw %struct.PGPROC, ptr %67, i32 0, i32 2
  %69 = load ptr, ptr %68, align 8
  call void @PGSemaphoreUnlock(ptr noundef %69)
  br label %62, !llvm.loop !22

70:                                               ; preds = %62
  br label %71

71:                                               ; preds = %70
  %72 = load volatile i32, ptr @InterruptHoldoffCount, align 4
  %73 = add i32 %72, -1
  store volatile i32 %73, ptr @InterruptHoldoffCount, align 4
  br label %74

74:                                               ; preds = %71
  br label %75

75:                                               ; preds = %74
  %76 = load i8, ptr %11, align 1, !range !7, !noundef !8
  %77 = trunc i8 %76 to i1
  store i32 1, ptr %13, align 4
  call void @llvm.lifetime.end.p0(i64 1, ptr %11) #9
  call void @llvm.lifetime.end.p0(i64 4, ptr %10) #9
  call void @llvm.lifetime.end.p0(i64 8, ptr %9) #9
  ret i1 %77

78:                                               ; preds = %58
  unreachable
}