; Function Attrs: nounwind uwtable
define dso_local noundef zeroext i1 @LWLockWaitForVar(ptr noundef %0, ptr noundef %1, i64 noundef %2, ptr noundef writeonly captures(none) %3) local_unnamed_addr #0 {
  %5 = load ptr, ptr @MyProc, align 8
  %6 = load volatile i32, ptr @InterruptHoldoffCount, align 4
  %7 = add i32 %6, 1
  store volatile i32 %7, ptr @InterruptHoldoffCount, align 4
  %8 = getelementptr inbounds nuw i8, ptr %0, i64 4
  %9 = getelementptr inbounds nuw i8, ptr %5, i64 24
  %10 = getelementptr inbounds nuw i8, ptr %5, i64 90
  %11 = load volatile i32, ptr %8, align 4
  %12 = and i32 %11, 16777216
  %.not.i58 = icmp eq i32 %12, 0
  br i1 %.not.i58, label %.preheader, label %.lr.ph61

.lr.ph61:                                         ; preds = %4, %LWLockConflictsWithVar.exit.thread
  %.01959 = phi i32 [ %.2, %LWLockConflictsWithVar.exit.thread ], [ 0, %4 ]
  %13 = load volatile i64, ptr %1, align 8
  %.not12.i = icmp eq i64 %13, %2
  br i1 %.not12.i, label %LWLockConflictsWithVar.exit, label %14

14:                                               ; preds = %.lr.ph61
  store i64 %13, ptr %3, align 8
  br label %.preheader

LWLockConflictsWithVar.exit:                      ; preds = %.lr.ph61
  tail call fastcc void @LWLockQueueSelf(ptr noundef nonnull %0, i32 noundef 2)
  %15 = atomicrmw or ptr %8, i32 536870912 seq_cst, align 4
  %16 = load volatile i32, ptr %8, align 4
  %17 = and i32 %16, 16777216
  %.not.i20 = icmp eq i32 %17, 0
  br i1 %.not.i20, label %.loopexit, label %18

18:                                               ; preds = %LWLockConflictsWithVar.exit
  %19 = load volatile i64, ptr %1, align 8
  %.not12.i21 = icmp eq i64 %19, %2
  br i1 %.not12.i21, label %LWLockConflictsWithVar.exit23, label %20

20:                                               ; preds = %18
  store i64 %19, ptr %3, align 8
  br label %.loopexit

.loopexit:                                        ; preds = %LWLockConflictsWithVar.exit, %20
  tail call fastcc void @LWLockDequeueSelf(ptr noundef nonnull %0)
  br label %.preheader

LWLockConflictsWithVar.exit23:                    ; preds = %18
  %21 = load i16, ptr %0, align 4
  %22 = zext i16 %21 to i32
  %23 = or disjoint i32 %22, 16777216
  %24 = load ptr, ptr @my_wait_event_info, align 8
  store volatile i32 %23, ptr %24, align 4
  br label %25

25:                                               ; preds = %25, %LWLockConflictsWithVar.exit23
  %.2 = phi i32 [ %.01959, %LWLockConflictsWithVar.exit23 ], [ %29, %25 ]
  %26 = load ptr, ptr %9, align 8
  tail call void @PGSemaphoreLock(ptr noundef %26) #15
  %27 = load i8, ptr %10, align 2
  %28 = icmp eq i8 %27, 0
  %29 = add i32 %.2, 1
  br i1 %28, label %LWLockConflictsWithVar.exit.thread, label %25

LWLockConflictsWithVar.exit.thread:               ; preds = %25
  %30 = load ptr, ptr @my_wait_event_info, align 8
  store volatile i32 0, ptr %30, align 4
  %31 = load volatile i32, ptr %8, align 4
  %32 = and i32 %31, 16777216
  %.not.i = icmp eq i32 %32, 0
  br i1 %.not.i, label %.preheader, label %.lr.ph61

.preheader:                                       ; preds = %LWLockConflictsWithVar.exit.thread, %4, %.loopexit, %14
  %.01951 = phi i32 [ %.01959, %14 ], [ %.01959, %.loopexit ], [ 0, %4 ], [ %.2, %LWLockConflictsWithVar.exit.thread ]
  %.024.ph = phi i1 [ false, %14 ], [ %.not.i20, %.loopexit ], [ true, %4 ], [ true, %LWLockConflictsWithVar.exit.thread ]
  %33 = icmp sgt i32 %.01951, 0
  br i1 %33, label %.lr.ph, label %._crit_edge

.lr.ph:                                           ; preds = %.preheader, %.lr.ph
  %.332 = phi i32 [ %34, %.lr.ph ], [ %.01951, %.preheader ]
  %34 = add nsw i32 %.332, -1
  %35 = load ptr, ptr %9, align 8
  tail call void @PGSemaphoreUnlock(ptr noundef %35) #15
  %36 = icmp samesign ugt i32 %.332, 1
  br i1 %36, label %.lr.ph, label %._crit_edge, !llvm.loop !24

._crit_edge:                                      ; preds = %.lr.ph, %.preheader
  %37 = load volatile i32, ptr @InterruptHoldoffCount, align 4
  %38 = add i32 %37, -1
  store volatile i32 %38, ptr @InterruptHoldoffCount, align 4
  ret i1 %.024.ph
}